target datalayout = "e-m:e-p270:32:32-p271:32:32-p272:64:64-i64:64-i128:128-f80:128-n8:16:32:64-S128"
target triple = "x86_64-unknown-linux-gnu"

%struct.ESPState = type { %struct.DeviceState, [16 x i8], [16 x i8], ptr, ptr, i8, i8, i32, i32, i32, %struct.Fifo8, %struct.SCSIBus, ptr, ptr, %struct.Fifo8, i8, i8, i32, i8, i8, i32, i32, ptr, ptr, ptr, ptr, ptr, i8, i8, i32, i32, i8, i32, i32, [16 x i8], [32 x i8], i32 }
%struct.DeviceState = type { %struct.Object, ptr, ptr, i8, i8, i64, ptr, i32, i8, ptr, %struct.NamedGPIOListHead, %struct.NamedClockListHead, %struct.BusStateHead, i32, i32, i32, %struct.ResettableState, ptr, %struct.MemReentrancyGuard }
%struct.Object = type { ptr, ptr, ptr, i32, ptr }
%struct.NamedGPIOListHead = type { ptr }
%struct.NamedClockListHead = type { ptr }
%struct.BusStateHead = type { ptr }
%struct.ResettableState = type { i32, i8, i8 }
%struct.MemReentrancyGuard = type { i8 }
%struct.SCSIBus = type { %struct.BusState, i32, %struct.SCSISense, ptr, i32 }
%struct.BusState = type { %struct.Object, ptr, ptr, ptr, i32, i8, i8, i32, %union.BusChildHead, %struct.BusStateEntry, %struct.ResettableState }
%union.BusChildHead = type { %struct.QTailQLink }
%struct.QTailQLink = type { ptr, ptr }
%struct.BusStateEntry = type { ptr, ptr }
%struct.SCSISense = type { i8, i8, i8 }
%struct.Fifo8 = type { ptr, i32, i32, i32 }
%struct.SysBusESPState = type { %struct.SysBusDevice, %struct.MemoryRegion, %struct.MemoryRegion, i32, %struct.ESPState }
%struct.SysBusDevice = type { %struct.DeviceState, i32, [32 x %struct.anon.1], i32, [32 x i32] }
%struct.anon.1 = type { i64, ptr }
%struct.MemoryRegion = type { %struct.Object, i8, i8, i8, i8, i8, i8, i8, i8, i8, i8, ptr, ptr, ptr, ptr, ptr, ptr, i32, i128, i64, ptr, i64, i8, i8, i8, i8, i8, ptr, i64, i32, %union.anon.2, %union.anon.3, %union.anon.4, ptr, i32, ptr, ptr, i8 }
%union.anon.2 = type { %struct.QTailQLink }
%union.anon.3 = type { %struct.QTailQLink }
%union.anon.4 = type { %struct.QTailQLink }

@.str.3 = private unnamed_addr constant [4 x i8] c"esp\00", align 1
@.str.104 = private unnamed_addr constant [100 x i8] c"/home/dtcxzyw/WorkSpace/Projects/compilers/llvm-opt-benchmark/bench/qemu/qemu/include/hw/scsi/esp.h\00", align 1
@__func__.ESP = private unnamed_addr constant [4 x i8] c"ESP\00", align 1
@.str.108 = private unnamed_addr constant [11 x i8] c"sysbus-esp\00", align 1
@__func__.SYSBUS_ESP = private unnamed_addr constant [11 x i8] c"SYSBUS_ESP\00", align 1

; Function Attrs: nounwind sspstrong uwtable
define dso_local void @esp_hard_reset(ptr noundef %s) #0 {
entry:
  %s.addr = alloca ptr, align 8
  store ptr %s, ptr %s.addr, align 8
  %0 = load ptr, ptr %s.addr, align 8
  %rregs = getelementptr inbounds %struct.ESPState, ptr %0, i32 0, i32 1
  %arraydecay = getelementptr inbounds [16 x i8], ptr %rregs, i64 0, i64 0
  call void @llvm.memset.p0.i64(ptr align 8 %arraydecay, i8 0, i64 16, i1 false)
  %1 = load ptr, ptr %s.addr, align 8
  %wregs = getelementptr inbounds %struct.ESPState, ptr %1, i32 0, i32 2
  %arraydecay1 = getelementptr inbounds [16 x i8], ptr %wregs, i64 0, i64 0
  call void @llvm.memset.p0.i64(ptr align 8 %arraydecay1, i8 0, i64 16, i1 false)
  %2 = load ptr, ptr %s.addr, align 8
  %tchi_written = getelementptr inbounds %struct.ESPState, ptr %2, i32 0, i32 6
  store i8 0, ptr %tchi_written, align 1
  %3 = load ptr, ptr %s.addr, align 8
  %ti_size = getelementptr inbounds %struct.ESPState, ptr %3, i32 0, i32 7
  store i32 0, ptr %ti_size, align 4
  %4 = load ptr, ptr %s.addr, align 8
  %async_len = getelementptr inbounds %struct.ESPState, ptr %4, i32 0, i32 21
  store i32 0, ptr %async_len, align 8
  %5 = load ptr, ptr %s.addr, align 8
  %fifo = getelementptr inbounds %struct.ESPState, ptr %5, i32 0, i32 10
  call void @fifo8_reset(ptr noundef %fifo)
  %6 = load ptr, ptr %s.addr, align 8
  %cmdfifo = getelementptr inbounds %struct.ESPState, ptr %6, i32 0, i32 14
  call void @fifo8_reset(ptr noundef %cmdfifo)
  %7 = load ptr, ptr %s.addr, align 8
  %dma = getelementptr inbounds %struct.ESPState, ptr %7, i32 0, i32 9
  store i32 0, ptr %dma, align 4
  %8 = load ptr, ptr %s.addr, align 8
  %do_cmd = getelementptr inbounds %struct.ESPState, ptr %8, i32 0, i32 17
  store i32 0, ptr %do_cmd, align 4
  %9 = load ptr, ptr %s.addr, align 8
  %dma_cb = getelementptr inbounds %struct.ESPState, ptr %9, i32 0, i32 26
  store ptr null, ptr %dma_cb, align 8
  %10 = load ptr, ptr %s.addr, align 8
  %rregs2 = getelementptr inbounds %struct.ESPState, ptr %10, i32 0, i32 1
  %arrayidx = getelementptr [16 x i8], ptr %rregs2, i64 0, i64 8
  store i8 7, ptr %arrayidx, align 8
  ret void
}

; Function Attrs: nounwind sspstrong uwtable
define internal ptr @ESP(ptr noundef %obj) #0 {
entry:
  %obj.addr = alloca ptr, align 8
  store ptr %obj, ptr %obj.addr, align 8
  %0 = load ptr, ptr %obj.addr, align 8
  %call = call ptr @object_dynamic_cast_assert(ptr noundef %0, ptr noundef @.str.3, ptr noundef @.str.104, i32 noundef 20, ptr noundef @__func__.ESP)
  ret ptr %call
}

; Function Attrs: nounwind sspstrong uwtable
define internal ptr @SYSBUS_ESP(ptr noundef %obj) #0 {
entry:
  %obj.addr = alloca ptr, align 8
  store ptr %obj, ptr %obj.addr, align 8
  %0 = load ptr, ptr %obj.addr, align 8
  %call = call ptr @object_dynamic_cast_assert(ptr noundef %0, ptr noundef @.str.108, ptr noundef @.str.104, i32 noundef 69, ptr noundef @__func__.SYSBUS_ESP)
  ret ptr %call
}

; Function Attrs: nounwind sspstrong uwtable
define internal void @sysbus_esp_hard_reset(ptr noundef %dev) #0 {
entry:
  %dev.addr = alloca ptr, align 8
  %sysbus = alloca ptr, align 8
  %s = alloca ptr, align 8
  store ptr %dev, ptr %dev.addr, align 8
  %0 = load ptr, ptr %dev.addr, align 8
  %call = call ptr @SYSBUS_ESP(ptr noundef %0)
  store ptr %call, ptr %sysbus, align 8
  %1 = load ptr, ptr %sysbus, align 8
  %esp = getelementptr inbounds %struct.SysBusESPState, ptr %1, i32 0, i32 4
  %call1 = call ptr @ESP(ptr noundef %esp)
  store ptr %call1, ptr %s, align 8
  %2 = load ptr, ptr %s, align 8
  call void @esp_hard_reset(ptr noundef %2)
  ret void
}