; Function Attrs: nounwind sspstrong uwtable
define internal void @sysbus_esp_hard_reset(ptr noundef %dev) #0 {
entry:
  %call.i = tail call ptr @object_dynamic_cast_assert(ptr noundef %dev, ptr noundef nonnull @.str.108, ptr noundef nonnull @.str.104, i32 noundef 69, ptr noundef nonnull @__func__.SYSBUS_ESP) #10
  %esp = getelementptr inbounds nuw i8, ptr %call.i, i64 1368
  %call.i1 = tail call ptr @object_dynamic_cast_assert(ptr noundef nonnull %esp, ptr noundef nonnull @.str.3, ptr noundef nonnull @.str.104, i32 noundef 20, ptr noundef nonnull @__func__.ESP) #10
  %rregs.i = getelementptr inbounds nuw i8, ptr %call.i1, i64 160
  %tchi_written.i = getelementptr inbounds nuw i8, ptr %call.i1, i64 209
  store i8 0, ptr %tchi_written.i, align 1
  %ti_size.i = getelementptr inbounds nuw i8, ptr %call.i1, i64 212
  store i32 0, ptr %ti_size.i, align 4
  %async_len.i = getelementptr inbounds nuw i8, ptr %call.i1, i64 448
  store i32 0, ptr %async_len.i, align 8
  %fifo.i = getelementptr inbounds nuw i8, ptr %call.i1, i64 224
  tail call void @llvm.memset.p0.i64(ptr noundef nonnull align 8 dereferenceable(32) %rregs.i, i8 0, i64 32, i1 false)
  tail call void @fifo8_reset(ptr noundef nonnull %fifo.i) #10
  %cmdfifo.i = getelementptr inbounds nuw i8, ptr %call.i1, i64 408
  tail call void @fifo8_reset(ptr noundef nonnull %cmdfifo.i) #10
  %dma.i = getelementptr inbounds nuw i8, ptr %call.i1, i64 220
  store i32 0, ptr %dma.i, align 4
  %do_cmd.i = getelementptr inbounds nuw i8, ptr %call.i1, i64 436
  store i32 0, ptr %do_cmd.i, align 4
  %dma_cb.i = getelementptr inbounds nuw i8, ptr %call.i1, i64 488
  store ptr null, ptr %dma_cb.i, align 8
  %arrayidx.i = getelementptr i8, ptr %call.i1, i64 168
  store i8 7, ptr %arrayidx.i, align 8
  ret void
}